; Function Attrs: mustprogress nofree norecurse nosync nounwind willreturn memory(read, inaccessiblemem: none) uwtable
define noundef zeroext i1 @_ZN8QuantLib21TqrEigenDecomposition13offDiagIsZeroEmRNS_5ArrayE(ptr nocapture noundef nonnull readonly align 8 dereferenceable(48) %this, i64 noundef %k, ptr nocapture noundef nonnull readonly align 8 dereferenceable(16) %e) local_unnamed_addr #6 align 2 {
entry:
  %d_ = getelementptr inbounds nuw i8, ptr %this, i64 8
  %0 = load ptr, ptr %d_, align 8, !tbaa !18
  %1 = getelementptr double, ptr %0, i64 %k
  %arrayidx.i = getelementptr i8, ptr %1, i64 -8
  %2 = load double, ptr %arrayidx.i, align 8, !tbaa !21
  %3 = tail call double @llvm.fabs.f64(double %2)
  %4 = load double, ptr %1, align 8, !tbaa !21
  %5 = tail call double @llvm.fabs.f64(double %4)
  %add = fadd double %3, %5
  %6 = load ptr, ptr %e, align 8, !tbaa !18
  %arrayidx.i8 = getelementptr inbounds nuw double, ptr %6, i64 %k
  %7 = load double, ptr %arrayidx.i8, align 8, !tbaa !21
  %8 = tail call double @llvm.fabs.f64(double %7)
  %add11 = fadd double %add, %8
  %cmp = fcmp oeq double %add, %add11
  ret i1 %cmp
}